target datalayout = "e-m:e-p270:32:32-p271:32:32-p272:64:64-i64:64-i128:128-f80:128-n8:16:32:64-S128"
target triple = "x86_64-pc-linux-gnu"

%class.PerfData = type { ptr, ptr, i32, i32, i8, i32, ptr, ptr }
%class.PerfClassTraceTime = type { %class.elapsedTimer, ptr, ptr, ptr, ptr, ptr, i32, i32 }
%class.elapsedTimer = type <{ i64, i64, i8, [7 x i8] }>

@UsePerfData = external global i8, align 1

; Function Attrs: mustprogress nounwind uwtable
define linkonce_odr hidden noundef zeroext i1 @_ZNK12elapsedTimer9is_activeEv(ptr noundef nonnull align 8 dereferenceable(17) %0) #1 comdat align 2 {
  %2 = alloca ptr, align 8
  store ptr %0, ptr %2, align 8
  %3 = load ptr, ptr %2, align 8
  %4 = getelementptr inbounds %class.elapsedTimer, ptr %3, i32 0, i32 2
  %5 = load i8, ptr %4, align 8
  %6 = trunc i8 %5 to i1
  ret i1 %6
}

; Function Attrs: mustprogress nounwind uwtable
define linkonce_odr hidden void @_ZN15PerfLongVariant3incEv(ptr noundef nonnull align 8 dereferenceable(56) %0) #1 comdat align 2 {
  %2 = alloca ptr, align 8
  store ptr %0, ptr %2, align 8
  %3 = load ptr, ptr %2, align 8
  %4 = getelementptr inbounds %class.PerfData, ptr %3, i32 0, i32 7
  %5 = load ptr, ptr %4, align 8
  %6 = load i64, ptr %5, align 8
  %7 = add nsw i64 %6, 1
  store i64 %7, ptr %5, align 8
  ret void
}

; Function Attrs: mustprogress nounwind uwtable
define hidden void @_ZN18PerfClassTraceTime10initializeEv(ptr noundef nonnull align 8 dereferenceable(72) %0) #1 align 2 {
  %2 = alloca ptr, align 8
  %3 = alloca i32, align 4
  store ptr %0, ptr %2, align 8
  %4 = load ptr, ptr %2, align 8
  %5 = load i8, ptr @UsePerfData, align 1
  %6 = trunc i8 %5 to i1
  br i1 %6, label %8, label %7

7:                                                ; preds = %1
  br label %70

8:                                                ; preds = %1
  %9 = getelementptr inbounds %class.PerfClassTraceTime, ptr %4, i32 0, i32 3
  %10 = load ptr, ptr %9, align 8
  %11 = icmp ne ptr %10, null
  br i1 %11, label %12, label %15

12:                                               ; preds = %8
  %13 = getelementptr inbounds %class.PerfClassTraceTime, ptr %4, i32 0, i32 3
  %14 = load ptr, ptr %13, align 8
  call void @_ZN15PerfLongVariant3incEv(ptr noundef nonnull align 8 dereferenceable(56) %14)
  br label %15

15:                                               ; preds = %12, %8
  %16 = getelementptr inbounds %class.PerfClassTraceTime, ptr %4, i32 0, i32 7
  store i32 -1, ptr %16, align 4
  store i32 0, ptr %3, align 4
  br label %17

17:                                               ; preds = %36, %15
  %18 = load i32, ptr %3, align 4
  %19 = icmp slt i32 %18, 5
  br i1 %19, label %20, label %39

20:                                               ; preds = %17
  %21 = getelementptr inbounds %class.PerfClassTraceTime, ptr %4, i32 0, i32 5
  %22 = load ptr, ptr %21, align 8
  %23 = load i32, ptr %3, align 4
  %24 = sext i32 %23 to i64
  %25 = getelementptr inbounds %class.elapsedTimer, ptr %22, i64 %24
  %26 = call noundef zeroext i1 @_ZNK12elapsedTimer9is_activeEv(ptr noundef nonnull align 8 dereferenceable(17) %25)
  br i1 %26, label %27, label %35

27:                                               ; preds = %20
  %28 = load i32, ptr %3, align 4
  %29 = getelementptr inbounds %class.PerfClassTraceTime, ptr %4, i32 0, i32 7
  store i32 %28, ptr %29, align 4
  %30 = getelementptr inbounds %class.PerfClassTraceTime, ptr %4, i32 0, i32 5
  %31 = load ptr, ptr %30, align 8
  %32 = load i32, ptr %3, align 4
  %33 = sext i32 %32 to i64
  %34 = getelementptr inbounds %class.elapsedTimer, ptr %31, i64 %33
  call void @_ZN12elapsedTimer4stopEv(ptr noundef nonnull align 8 dereferenceable(17) %34)
  br label %35

35:                                               ; preds = %27, %20
  br label %36

36:                                               ; preds = %35
  %37 = load i32, ptr %3, align 4
  %38 = add nsw i32 %37, 1
  store i32 %38, ptr %3, align 4
  br label %17, !llvm.loop !28

39:                                               ; preds = %17
  %40 = getelementptr inbounds %class.PerfClassTraceTime, ptr %4, i32 0, i32 4
  %41 = load ptr, ptr %40, align 8
  %42 = icmp eq ptr %41, null
  br i1 %42, label %53, label %43

43:                                               ; preds = %39
  %44 = getelementptr inbounds %class.PerfClassTraceTime, ptr %4, i32 0, i32 4
  %45 = load ptr, ptr %44, align 8
  %46 = getelementptr inbounds %class.PerfClassTraceTime, ptr %4, i32 0, i32 6
  %47 = load i32, ptr %46, align 8
  %48 = sext i32 %47 to i64
  %49 = getelementptr inbounds i32, ptr %45, i64 %48
  %50 = load i32, ptr %49, align 4
  %51 = add nsw i32 %50, 1
  store i32 %51, ptr %49, align 4
  %52 = icmp eq i32 %50, 0
  br i1 %52, label %53, label %55

53:                                               ; preds = %43, %39
  %54 = getelementptr inbounds %class.PerfClassTraceTime, ptr %4, i32 0, i32 0
  call void @_ZN12elapsedTimer5startEv(ptr noundef nonnull align 8 dereferenceable(17) %54)
  br label %55

55:                                               ; preds = %53, %43
  %56 = getelementptr inbounds %class.PerfClassTraceTime, ptr %4, i32 0, i32 5
  %57 = load ptr, ptr %56, align 8
  %58 = getelementptr inbounds %class.PerfClassTraceTime, ptr %4, i32 0, i32 6
  %59 = load i32, ptr %58, align 8
  %60 = sext i32 %59 to i64
  %61 = getelementptr inbounds %class.elapsedTimer, ptr %57, i64 %60
  %62 = call noundef zeroext i1 @_ZNK12elapsedTimer9is_activeEv(ptr noundef nonnull align 8 dereferenceable(17) %61)
  br i1 %62, label %70, label %63

63:                                               ; preds = %55
  %64 = getelementptr inbounds %class.PerfClassTraceTime, ptr %4, i32 0, i32 5
  %65 = load ptr, ptr %64, align 8
  %66 = getelementptr inbounds %class.PerfClassTraceTime, ptr %4, i32 0, i32 6
  %67 = load i32, ptr %66, align 8
  %68 = sext i32 %67 to i64
  %69 = getelementptr inbounds %class.elapsedTimer, ptr %65, i64 %68
  call void @_ZN12elapsedTimer5startEv(ptr noundef nonnull align 8 dereferenceable(17) %69)
  br label %70

70:                                               ; preds = %63, %55, %7
  ret void
}