; Function Attrs: mustprogress nounwind uwtable
define hidden void @_ZN18PerfClassTraceTime10initializeEv(ptr noundef nonnull align 8 dereferenceable(72) %0) local_unnamed_addr #0 align 2 {
  %2 = load i8, ptr @UsePerfData, align 1
  %3 = trunc i8 %2 to i1
  br i1 %3, label %4, label %47

4:                                                ; preds = %1
  %5 = getelementptr inbounds i8, ptr %0, i64 40
  %6 = load ptr, ptr %5, align 8
  %.not = icmp eq ptr %6, null
  br i1 %.not, label %12, label %7

7:                                                ; preds = %4
  %8 = getelementptr inbounds i8, ptr %6, i64 40
  %9 = load ptr, ptr %8, align 8
  %10 = load i64, ptr %9, align 8
  %11 = add nsw i64 %10, 1
  store i64 %11, ptr %9, align 8
  br label %12

12:                                               ; preds = %7, %4
  %13 = getelementptr inbounds i8, ptr %0, i64 68
  store i32 -1, ptr %13, align 4
  %14 = getelementptr inbounds i8, ptr %0, i64 56
  br label %15

15:                                               ; preds = %12, %23
  %indvars.iv = phi i64 [ 0, %12 ], [ %indvars.iv.next, %23 ]
  %16 = load ptr, ptr %14, align 8
  %17 = getelementptr inbounds %class.elapsedTimer, ptr %16, i64 %indvars.iv
  %18 = getelementptr inbounds i8, ptr %17, i64 16
  %19 = load i8, ptr %18, align 8
  %20 = trunc i8 %19 to i1
  br i1 %20, label %21, label %23

21:                                               ; preds = %15
  %22 = trunc nuw nsw i64 %indvars.iv to i32
  store i32 %22, ptr %13, align 4
  tail call void @_ZN12elapsedTimer4stopEv(ptr noundef nonnull align 8 dereferenceable(17) %17) #20
  br label %23

23:                                               ; preds = %15, %21
  %indvars.iv.next = add nuw nsw i64 %indvars.iv, 1
  %exitcond.not = icmp eq i64 %indvars.iv.next, 5
  br i1 %exitcond.not, label %24, label %15, !llvm.loop !28

24:                                               ; preds = %23
  %25 = getelementptr inbounds i8, ptr %0, i64 48
  %26 = load ptr, ptr %25, align 8
  %27 = icmp eq ptr %26, null
  br i1 %27, label %36, label %28

28:                                               ; preds = %24
  %29 = getelementptr inbounds i8, ptr %0, i64 64
  %30 = load i32, ptr %29, align 8
  %31 = sext i32 %30 to i64
  %32 = getelementptr inbounds i32, ptr %26, i64 %31
  %33 = load i32, ptr %32, align 4
  %34 = add nsw i32 %33, 1
  store i32 %34, ptr %32, align 4
  %35 = icmp eq i32 %33, 0
  br i1 %35, label %36, label %37

36:                                               ; preds = %28, %24
  tail call void @_ZN12elapsedTimer5startEv(ptr noundef nonnull align 8 dereferenceable(17) %0) #20
  br label %37

37:                                               ; preds = %36, %28
  %38 = load ptr, ptr %14, align 8
  %39 = getelementptr inbounds i8, ptr %0, i64 64
  %40 = load i32, ptr %39, align 8
  %41 = sext i32 %40 to i64
  %42 = getelementptr inbounds %class.elapsedTimer, ptr %38, i64 %41
  %43 = getelementptr inbounds i8, ptr %42, i64 16
  %44 = load i8, ptr %43, align 8
  %45 = trunc i8 %44 to i1
  br i1 %45, label %47, label %46

46:                                               ; preds = %37
  tail call void @_ZN12elapsedTimer5startEv(ptr noundef nonnull align 8 dereferenceable(17) %42) #20
  br label %47

47:                                               ; preds = %1, %46, %37
  ret void
}